target datalayout = "e-m:e-p270:32:32-p271:32:32-p272:64:64-i64:64-i128:128-f80:128-n8:16:32:64-S128"
target triple = "x86_64-pc-linux-gnu"

%struct.VuDev = type { i32, i32, ptr, ptr, %struct.VuDevInflightInfo, i32, %union.pthread_mutex_t, i32, i64, ptr, i64, i64, i8, i16, ptr, ptr, ptr, ptr, ptr, i32, i8 }
%struct.VuDevInflightInfo = type { i32, ptr, i64 }
%union.pthread_mutex_t = type { %struct.__pthread_mutex_s }
%struct.__pthread_mutex_s = type { i32, i32, i32, i32, i32, i16, i16, %struct.__pthread_internal_list }
%struct.__pthread_internal_list = type { ptr, ptr }
%struct.VuVirtq = type { %struct.VuRing, ptr, ptr, i16, i64, i16, i16, i16, i16, i8, i8, i32, ptr, i32, i32, i32, i32, i8, %struct.vhost_vring_addr }
%struct.VuRing = type { i32, ptr, ptr, ptr, i64, i32 }
%struct.vhost_vring_addr = type { i32, i32, i64, i64, i64, i64 }

@.str.39 = private unnamed_addr constant [15 x i8] c"max_queues > 0\00", align 1
@.str.40 = private unnamed_addr constant [50 x i8] c"../qemu/subprojects/libvhost-user/libvhost-user.c\00", align 1
@__PRETTY_FUNCTION__.vu_init = private unnamed_addr constant [124 x i8] c"_Bool vu_init(VuDev *, uint16_t, int, vu_panic_cb, vu_read_msg_cb, vu_set_watch_cb, vu_remove_watch_cb, const VuDevIface *)\00", align 1
@.str.41 = private unnamed_addr constant [12 x i8] c"socket >= 0\00", align 1
@.str.42 = private unnamed_addr constant [10 x i8] c"set_watch\00", align 1
@.str.43 = private unnamed_addr constant [13 x i8] c"remove_watch\00", align 1
@.str.44 = private unnamed_addr constant [6 x i8] c"iface\00", align 1
@.str.45 = private unnamed_addr constant [6 x i8] c"panic\00", align 1

; Function Attrs: nounwind uwtable
define dso_local zeroext i1 @vu_init(ptr noundef %0, i16 noundef zeroext %1, i32 noundef %2, ptr noundef %3, ptr noundef %4, ptr noundef %5, ptr noundef %6, ptr noundef %7) #0 {
  %9 = alloca i1, align 1
  %10 = alloca ptr, align 8
  %11 = alloca i16, align 2
  %12 = alloca i32, align 4
  %13 = alloca ptr, align 8
  %14 = alloca ptr, align 8
  %15 = alloca ptr, align 8
  %16 = alloca ptr, align 8
  %17 = alloca ptr, align 8
  %18 = alloca i16, align 2
  %19 = alloca i32, align 4
  %20 = alloca %struct.VuVirtq, align 8
  store ptr %0, ptr %10, align 8
  store i16 %1, ptr %11, align 2
  store i32 %2, ptr %12, align 4
  store ptr %3, ptr %13, align 8
  store ptr %4, ptr %14, align 8
  store ptr %5, ptr %15, align 8
  store ptr %6, ptr %16, align 8
  store ptr %7, ptr %17, align 8
  call void @llvm.lifetime.start.p0(i64 2, ptr %18) #13
  store i16 0, ptr %18, align 2, !annotation !4
  %21 = load i16, ptr %11, align 2
  %22 = zext i16 %21 to i32
  %23 = icmp sgt i32 %22, 0
  br i1 %23, label %24, label %25

24:                                               ; preds = %8
  br label %26

25:                                               ; preds = %8
  call void @__assert_fail(ptr noundef @.str.39, ptr noundef @.str.40, i32 noundef 2264, ptr noundef @__PRETTY_FUNCTION__.vu_init) #15
  unreachable

26:                                               ; preds = %24
  %27 = load i32, ptr %12, align 4
  %28 = icmp sge i32 %27, 0
  br i1 %28, label %29, label %30

29:                                               ; preds = %26
  br label %31

30:                                               ; preds = %26
  call void @__assert_fail(ptr noundef @.str.41, ptr noundef @.str.40, i32 noundef 2265, ptr noundef @__PRETTY_FUNCTION__.vu_init) #15
  unreachable

31:                                               ; preds = %29
  %32 = load ptr, ptr %15, align 8
  %33 = icmp ne ptr %32, null
  br i1 %33, label %34, label %35

34:                                               ; preds = %31
  br label %36

35:                                               ; preds = %31
  call void @__assert_fail(ptr noundef @.str.42, ptr noundef @.str.40, i32 noundef 2266, ptr noundef @__PRETTY_FUNCTION__.vu_init) #15
  unreachable

36:                                               ; preds = %34
  %37 = load ptr, ptr %16, align 8
  %38 = icmp ne ptr %37, null
  br i1 %38, label %39, label %40

39:                                               ; preds = %36
  br label %41

40:                                               ; preds = %36
  call void @__assert_fail(ptr noundef @.str.43, ptr noundef @.str.40, i32 noundef 2267, ptr noundef @__PRETTY_FUNCTION__.vu_init) #15
  unreachable

41:                                               ; preds = %39
  %42 = load ptr, ptr %17, align 8
  %43 = icmp ne ptr %42, null
  br i1 %43, label %44, label %45

44:                                               ; preds = %41
  br label %46

45:                                               ; preds = %41
  call void @__assert_fail(ptr noundef @.str.44, ptr noundef @.str.40, i32 noundef 2268, ptr noundef @__PRETTY_FUNCTION__.vu_init) #15
  unreachable

46:                                               ; preds = %44
  %47 = load ptr, ptr %13, align 8
  %48 = icmp ne ptr %47, null
  br i1 %48, label %49, label %50

49:                                               ; preds = %46
  br label %51

50:                                               ; preds = %46
  call void @__assert_fail(ptr noundef @.str.45, ptr noundef @.str.40, i32 noundef 2269, ptr noundef @__PRETTY_FUNCTION__.vu_init) #15
  unreachable

51:                                               ; preds = %49
  %52 = load ptr, ptr %10, align 8
  call void @llvm.memset.p0.i64(ptr align 8 %52, i8 0, i64 192, i1 false)
  %53 = load i32, ptr %12, align 4
  %54 = load ptr, ptr %10, align 8
  %55 = getelementptr inbounds nuw %struct.VuDev, ptr %54, i32 0, i32 0
  store i32 %53, ptr %55, align 8
  %56 = load ptr, ptr %13, align 8
  %57 = load ptr, ptr %10, align 8
  %58 = getelementptr inbounds nuw %struct.VuDev, ptr %57, i32 0, i32 17
  store ptr %56, ptr %58, align 8
  %59 = load ptr, ptr %14, align 8
  %60 = icmp ne ptr %59, null
  br i1 %60, label %61, label %63

61:                                               ; preds = %51
  %62 = load ptr, ptr %14, align 8
  br label %64

63:                                               ; preds = %51
  br label %64

64:                                               ; preds = %63, %61
  %65 = phi ptr [ %62, %61 ], [ @vu_message_read_default, %63 ]
  %66 = load ptr, ptr %10, align 8
  %67 = getelementptr inbounds nuw %struct.VuDev, ptr %66, i32 0, i32 14
  store ptr %65, ptr %67, align 8
  %68 = load ptr, ptr %15, align 8
  %69 = load ptr, ptr %10, align 8
  %70 = getelementptr inbounds nuw %struct.VuDev, ptr %69, i32 0, i32 15
  store ptr %68, ptr %70, align 8
  %71 = load ptr, ptr %16, align 8
  %72 = load ptr, ptr %10, align 8
  %73 = getelementptr inbounds nuw %struct.VuDev, ptr %72, i32 0, i32 16
  store ptr %71, ptr %73, align 8
  %74 = load ptr, ptr %17, align 8
  %75 = load ptr, ptr %10, align 8
  %76 = getelementptr inbounds nuw %struct.VuDev, ptr %75, i32 0, i32 18
  store ptr %74, ptr %76, align 8
  %77 = load ptr, ptr %10, align 8
  %78 = getelementptr inbounds nuw %struct.VuDev, ptr %77, i32 0, i32 5
  store i32 -1, ptr %78, align 8
  %79 = load ptr, ptr %10, align 8
  %80 = getelementptr inbounds nuw %struct.VuDev, ptr %79, i32 0, i32 6
  %81 = call i32 @pthread_mutex_init(ptr noundef %80, ptr noundef null) #13
  %82 = load ptr, ptr %10, align 8
  %83 = getelementptr inbounds nuw %struct.VuDev, ptr %82, i32 0, i32 7
  store i32 -1, ptr %83, align 8
  %84 = load i16, ptr %11, align 2
  %85 = load ptr, ptr %10, align 8
  %86 = getelementptr inbounds nuw %struct.VuDev, ptr %85, i32 0, i32 13
  store i16 %84, ptr %86, align 2
  %87 = call noalias ptr @malloc(i64 noundef 20360) #16
  %88 = load ptr, ptr %10, align 8
  %89 = getelementptr inbounds nuw %struct.VuDev, ptr %88, i32 0, i32 2
  store ptr %87, ptr %89, align 8
  %90 = load ptr, ptr %10, align 8
  %91 = getelementptr inbounds nuw %struct.VuDev, ptr %90, i32 0, i32 2
  %92 = load ptr, ptr %91, align 8
  %93 = icmp ne ptr %92, null
  br i1 %93, label %98, label %94

94:                                               ; preds = %64
  br label %95

95:                                               ; preds = %94
  br label %96

96:                                               ; preds = %95
  br label %97

97:                                               ; preds = %96
  store i1 false, ptr %9, align 1
  store i32 1, ptr %19, align 4
  br label %140

98:                                               ; preds = %64
  %99 = load i16, ptr %11, align 2
  %100 = zext i16 %99 to i64
  %101 = mul i64 %100, 168
  %102 = call noalias ptr @malloc(i64 noundef %101) #16
  %103 = load ptr, ptr %10, align 8
  %104 = getelementptr inbounds nuw %struct.VuDev, ptr %103, i32 0, i32 3
  store ptr %102, ptr %104, align 8
  %105 = load ptr, ptr %10, align 8
  %106 = getelementptr inbounds nuw %struct.VuDev, ptr %105, i32 0, i32 3
  %107 = load ptr, ptr %106, align 8
  %108 = icmp ne ptr %107, null
  br i1 %108, label %118, label %109

109:                                              ; preds = %98
  br label %110

110:                                              ; preds = %109
  br label %111

111:                                              ; preds = %110
  br label %112

112:                                              ; preds = %111
  %113 = load ptr, ptr %10, align 8
  %114 = getelementptr inbounds nuw %struct.VuDev, ptr %113, i32 0, i32 2
  %115 = load ptr, ptr %114, align 8
  call void @free(ptr noundef %115) #13
  %116 = load ptr, ptr %10, align 8
  %117 = getelementptr inbounds nuw %struct.VuDev, ptr %116, i32 0, i32 2
  store ptr null, ptr %117, align 8
  store i1 false, ptr %9, align 1
  store i32 1, ptr %19, align 4
  br label %140

118:                                              ; preds = %98
  store i16 0, ptr %18, align 2
  br label %119

119:                                              ; preds = %136, %118
  %120 = load i16, ptr %18, align 2
  %121 = zext i16 %120 to i32
  %122 = load i16, ptr %11, align 2
  %123 = zext i16 %122 to i32
  %124 = icmp slt i32 %121, %123
  br i1 %124, label %125, label %139

125:                                              ; preds = %119
  %126 = load ptr, ptr %10, align 8
  %127 = getelementptr inbounds nuw %struct.VuDev, ptr %126, i32 0, i32 3
  %128 = load ptr, ptr %127, align 8
  %129 = load i16, ptr %18, align 2
  %130 = zext i16 %129 to i64
  %131 = getelementptr inbounds nuw %struct.VuVirtq, ptr %128, i64 %130
  call void @llvm.memset.p0.i64(ptr align 8 %20, i8 0, i64 168, i1 false)
  %132 = getelementptr inbounds nuw %struct.VuVirtq, ptr %20, i32 0, i32 10
  store i8 1, ptr %132, align 1
  %133 = getelementptr inbounds nuw %struct.VuVirtq, ptr %20, i32 0, i32 13
  store i32 -1, ptr %133, align 8
  %134 = getelementptr inbounds nuw %struct.VuVirtq, ptr %20, i32 0, i32 14
  store i32 -1, ptr %134, align 4
  %135 = getelementptr inbounds nuw %struct.VuVirtq, ptr %20, i32 0, i32 15
  store i32 -1, ptr %135, align 8
  call void @llvm.memcpy.p0.p0.i64(ptr align 8 %131, ptr align 8 %20, i64 168, i1 false)
  br label %136

136:                                              ; preds = %125
  %137 = load i16, ptr %18, align 2
  %138 = add i16 %137, 1
  store i16 %138, ptr %18, align 2
  br label %119

139:                                              ; preds = %119
  store i1 true, ptr %9, align 1
  store i32 1, ptr %19, align 4
  br label %140

140:                                              ; preds = %139, %112, %97
  call void @llvm.lifetime.end.p0(i64 2, ptr %18) #13
  %141 = load i1, ptr %9, align 1
  ret i1 %141
}