; Function Attrs: nounwind uwtable
define dso_local noundef zeroext i1 @vu_init(ptr noundef %0, i16 noundef zeroext %1, i32 noundef %2, ptr noundef %3, ptr noundef %4, ptr noundef %5, ptr noundef %6, ptr noundef %7) local_unnamed_addr #3 {
  %.not = icmp eq i16 %1, 0
  br i1 %.not, label %9, label %10

9:                                                ; preds = %8
  tail call void @__assert_fail(ptr noundef nonnull @.str.39, ptr noundef nonnull @.str.40, i32 noundef 2264, ptr noundef nonnull @__PRETTY_FUNCTION__.vu_init) #23
  unreachable

10:                                               ; preds = %8
  %11 = icmp sgt i32 %2, -1
  br i1 %11, label %13, label %12

12:                                               ; preds = %10
  tail call void @__assert_fail(ptr noundef nonnull @.str.41, ptr noundef nonnull @.str.40, i32 noundef 2265, ptr noundef nonnull @__PRETTY_FUNCTION__.vu_init) #23
  unreachable

13:                                               ; preds = %10
  %.not45 = icmp eq ptr %5, null
  br i1 %.not45, label %14, label %15

14:                                               ; preds = %13
  tail call void @__assert_fail(ptr noundef nonnull @.str.42, ptr noundef nonnull @.str.40, i32 noundef 2266, ptr noundef nonnull @__PRETTY_FUNCTION__.vu_init) #23
  unreachable

15:                                               ; preds = %13
  %.not46 = icmp eq ptr %6, null
  br i1 %.not46, label %16, label %17

16:                                               ; preds = %15
  tail call void @__assert_fail(ptr noundef nonnull @.str.43, ptr noundef nonnull @.str.40, i32 noundef 2267, ptr noundef nonnull @__PRETTY_FUNCTION__.vu_init) #23
  unreachable

17:                                               ; preds = %15
  %.not47 = icmp eq ptr %7, null
  br i1 %.not47, label %18, label %19

18:                                               ; preds = %17
  tail call void @__assert_fail(ptr noundef nonnull @.str.44, ptr noundef nonnull @.str.40, i32 noundef 2268, ptr noundef nonnull @__PRETTY_FUNCTION__.vu_init) #23
  unreachable

19:                                               ; preds = %17
  %.not48 = icmp eq ptr %3, null
  br i1 %.not48, label %20, label %21

20:                                               ; preds = %19
  tail call void @__assert_fail(ptr noundef nonnull @.str.45, ptr noundef nonnull @.str.40, i32 noundef 2269, ptr noundef nonnull @__PRETTY_FUNCTION__.vu_init) #23
  unreachable

21:                                               ; preds = %19
  tail call void @llvm.memset.p0.i64(ptr noundef nonnull align 8 dereferenceable(192) %0, i8 0, i64 192, i1 false)
  store i32 %2, ptr %0, align 8
  %22 = getelementptr inbounds nuw i8, ptr %0, i64 168
  store ptr %3, ptr %22, align 8
  %.not49 = icmp eq ptr %4, null
  %23 = select i1 %.not49, ptr @vu_message_read_default, ptr %4
  %24 = getelementptr inbounds nuw i8, ptr %0, i64 144
  store ptr %23, ptr %24, align 8
  %25 = getelementptr inbounds nuw i8, ptr %0, i64 152
  store ptr %5, ptr %25, align 8
  %26 = getelementptr inbounds nuw i8, ptr %0, i64 160
  store ptr %6, ptr %26, align 8
  %27 = getelementptr inbounds nuw i8, ptr %0, i64 176
  store ptr %7, ptr %27, align 8
  %28 = getelementptr inbounds nuw i8, ptr %0, i64 48
  store i32 -1, ptr %28, align 8
  %29 = getelementptr inbounds nuw i8, ptr %0, i64 56
  %30 = tail call i32 @pthread_mutex_init(ptr noundef nonnull %29, ptr noundef null) #21
  %31 = getelementptr inbounds nuw i8, ptr %0, i64 96
  store i32 -1, ptr %31, align 8
  %32 = getelementptr inbounds nuw i8, ptr %0, i64 138
  store i16 %1, ptr %32, align 2
  %33 = tail call noalias dereferenceable_or_null(20360) ptr @malloc(i64 noundef 20360) #25
  %34 = getelementptr inbounds nuw i8, ptr %0, i64 8
  store ptr %33, ptr %34, align 8
  %.not50 = icmp eq ptr %33, null
  br i1 %.not50, label %.loopexit, label %35

35:                                               ; preds = %21
  %36 = zext i16 %1 to i64
  %37 = mul nuw nsw i64 %36, 168
  %38 = tail call noalias ptr @malloc(i64 noundef %37) #25
  %39 = getelementptr inbounds nuw i8, ptr %0, i64 16
  store ptr %38, ptr %39, align 8
  %.not51 = icmp eq ptr %38, null
  br i1 %.not51, label %40, label %.preheader

40:                                               ; preds = %35
  tail call void @free(ptr noundef nonnull %33) #21
  store ptr null, ptr %34, align 8
  br label %.loopexit

.preheader:                                       ; preds = %35, %.preheader
  %indvars.iv = phi i64 [ %indvars.iv.next, %.preheader ], [ 0, %35 ]
  %41 = load ptr, ptr %39, align 8
  %42 = getelementptr inbounds nuw %struct.VuVirtq, ptr %41, i64 %indvars.iv
  tail call void @llvm.memset.p0.i64(ptr noundef nonnull align 8 dereferenceable(89) %42, i8 0, i64 89, i1 false)
  %.sroa.2.0..sroa_idx = getelementptr inbounds nuw i8, ptr %42, i64 89
  store i8 1, ptr %.sroa.2.0..sroa_idx, align 1
  %.sroa.3.0..sroa_idx = getelementptr inbounds nuw i8, ptr %42, i64 90
  tail call void @llvm.memset.p0.i64(ptr noundef nonnull align 2 dereferenceable(14) %.sroa.3.0..sroa_idx, i8 0, i64 14, i1 false)
  %.sroa.31.0..sroa_idx = getelementptr inbounds nuw i8, ptr %42, i64 104
  store i32 -1, ptr %.sroa.31.0..sroa_idx, align 8
  %.sroa.4.0..sroa_idx = getelementptr inbounds nuw i8, ptr %42, i64 108
  store i32 -1, ptr %.sroa.4.0..sroa_idx, align 4
  %.sroa.5.0..sroa_idx = getelementptr inbounds nuw i8, ptr %42, i64 112
  store i32 -1, ptr %.sroa.5.0..sroa_idx, align 8
  %.sroa.6.0..sroa_idx = getelementptr inbounds nuw i8, ptr %42, i64 116
  tail call void @llvm.memset.p0.i64(ptr noundef nonnull align 4 dereferenceable(52) %.sroa.6.0..sroa_idx, i8 0, i64 52, i1 false)
  %indvars.iv.next = add nuw nsw i64 %indvars.iv, 1
  %exitcond.not = icmp eq i64 %indvars.iv.next, %36
  br i1 %exitcond.not, label %.loopexit, label %.preheader

.loopexit:                                        ; preds = %.preheader, %21, %40
  %.038 = phi i1 [ false, %40 ], [ false, %21 ], [ true, %.preheader ]
  ret i1 %.038
}